; Function Attrs: mustprogress nofree norecurse nounwind willreturn memory(readwrite, inaccessiblemem: none) uwtable
define void @_ZN8QuantLib20BlackCdsOptionEngine10volatilityEv(ptr dead_on_unwind noalias nocapture writable writeonly sret(%"class.QuantLib::Handle.39") align 8 %agg.result, ptr nocapture noundef nonnull readonly align 8 dereferenceable(464) %this) local_unnamed_addr #13 align 2 personality ptr @__gxx_personality_v0 {
entry:
  %volatility_ = getelementptr inbounds nuw i8, ptr %this, i64 448
  %0 = load ptr, ptr %volatility_, align 8, !tbaa !83
  store ptr %0, ptr %agg.result, align 8, !tbaa !83
  %pn.i.i = getelementptr inbounds nuw i8, ptr %agg.result, i64 8
  %pn3.i.i = getelementptr inbounds nuw i8, ptr %this, i64 456
  %1 = load ptr, ptr %pn3.i.i, align 8, !tbaa !37
  store ptr %1, ptr %pn.i.i, align 8, !tbaa !37
  %cmp.not.i.i.i = icmp eq ptr %1, null
  br i1 %cmp.not.i.i.i, label %_ZN8QuantLib6HandleINS_5QuoteEEC2ERKS2_.exit, label %if.then.i.i.i

if.then.i.i.i:                                    ; preds = %entry
  %use_count_.i.i.i.i = getelementptr inbounds nuw i8, ptr %1, i64 8
  %2 = atomicrmw add ptr %use_count_.i.i.i.i, i32 1 monotonic, align 4
  br label %_ZN8QuantLib6HandleINS_5QuoteEEC2ERKS2_.exit

_ZN8QuantLib6HandleINS_5QuoteEEC2ERKS2_.exit:     ; preds = %entry, %if.then.i.i.i
  ret void
}